; Function Attrs: nounwind uwtable
define internal noundef i32 @_signal_module_clear(ptr noundef readonly captures(none) %0) #2 {
  %2 = getelementptr i8, ptr %0, i64 32
  %.val = load ptr, ptr %2, align 8, !tbaa !202
  %3 = getelementptr inbounds nuw i8, ptr %.val, i64 16
  %4 = load ptr, ptr %3, align 8, !tbaa !176
  %.not = icmp eq ptr %4, null
  br i1 %.not, label %Py_DECREF.exit14, label %5

5:                                                ; preds = %1
  store ptr null, ptr %3, align 8, !tbaa !176
  %6 = load i32, ptr %4, align 8, !tbaa !180
  %.not.i13 = icmp sgt i32 %6, -1
  br i1 %.not.i13, label %7, label %Py_DECREF.exit14

7:                                                ; preds = %5
  %8 = add nsw i32 %6, -1
  store i32 %8, ptr %4, align 8, !tbaa !180
  %9 = icmp eq i32 %8, 0
  br i1 %9, label %10, label %Py_DECREF.exit14

10:                                               ; preds = %7
  tail call void @_Py_Dealloc(ptr noundef nonnull %4) #15
  br label %Py_DECREF.exit14

Py_DECREF.exit14:                                 ; preds = %10, %7, %5, %1
  %11 = getelementptr inbounds nuw i8, ptr %.val, i64 24
  %12 = load ptr, ptr %11, align 8, !tbaa !208
  %.not12 = icmp eq ptr %12, null
  br i1 %.not12, label %Py_DECREF.exit, label %13

13:                                               ; preds = %Py_DECREF.exit14
  store ptr null, ptr %11, align 8, !tbaa !208
  %14 = load i32, ptr %12, align 8, !tbaa !180
  %.not.i = icmp sgt i32 %14, -1
  br i1 %.not.i, label %15, label %Py_DECREF.exit

15:                                               ; preds = %13
  %16 = add nsw i32 %14, -1
  store i32 %16, ptr %12, align 8, !tbaa !180
  %17 = icmp eq i32 %16, 0
  br i1 %17, label %18, label %Py_DECREF.exit

18:                                               ; preds = %15
  tail call void @_Py_Dealloc(ptr noundef nonnull %12) #15
  br label %Py_DECREF.exit

Py_DECREF.exit:                                   ; preds = %18, %15, %13, %Py_DECREF.exit14
  ret i32 0
}